target datalayout = "e-m:e-p270:32:32-p271:32:32-p272:64:64-i64:64-i128:128-f80:128-n8:16:32:64-S128"
target triple = "x86_64-unknown-linux-gnu"

%class.btCompoundShape = type { %class.btCollisionShape, %class.btAlignedObjectArray, %class.btVector3, %class.btVector3, ptr, i32, float, %class.btVector3 }
%class.btCollisionShape = type { ptr, i32, ptr, i32, i32 }
%class.btAlignedObjectArray = type <{ %class.btAlignedAllocator, [3 x i8], i32, i32, [4 x i8], ptr, i8, [7 x i8] }>
%class.btAlignedAllocator = type { i8 }
%class.btVector3 = type { [4 x float] }
%struct.btCompoundShapeChild = type { %class.btTransform, ptr, i32, float, ptr }
%class.btTransform = type { %class.btMatrix3x3, %class.btVector3 }
%class.btMatrix3x3 = type { [3 x %class.btVector3] }
%struct.btDbvtAabbMm = type { %class.btVector3, %class.btVector3 }

; Function Attrs: mustprogress uwtable
define linkonce_odr dso_local void @_ZN12btDbvtAabbMmC2Ev(ptr noundef nonnull align 4 dereferenceable(32) %this) unnamed_addr #2 comdat align 2 {
entry:
  %this.addr = alloca ptr, align 8
  store ptr %this, ptr %this.addr, align 8
  %this1 = load ptr, ptr %this.addr, align 8
  %mi = getelementptr inbounds %struct.btDbvtAabbMm, ptr %this1, i32 0, i32 0
  call void @_ZN9btVector3C2Ev(ptr noundef nonnull align 4 dereferenceable(16) %mi)
  %mx = getelementptr inbounds %struct.btDbvtAabbMm, ptr %this1, i32 0, i32 1
  call void @_ZN9btVector3C2Ev(ptr noundef nonnull align 4 dereferenceable(16) %mx)
  ret void
}

; Function Attrs: mustprogress nounwind uwtable
define linkonce_odr dso_local noundef nonnull align 4 dereferenceable(48) ptr @_ZN11btMatrix3x3aSERKS_(ptr noundef nonnull align 4 dereferenceable(48) %this, ptr noundef nonnull align 4 dereferenceable(48) %other) #1 comdat align 2 {
entry:
  %this.addr = alloca ptr, align 8
  %other.addr = alloca ptr, align 8
  store ptr %this, ptr %this.addr, align 8
  store ptr %other, ptr %other.addr, align 8
  %this1 = load ptr, ptr %this.addr, align 8
  %0 = load ptr, ptr %other.addr, align 8
  %m_el = getelementptr inbounds %class.btMatrix3x3, ptr %0, i32 0, i32 0
  %arrayidx = getelementptr inbounds [3 x %class.btVector3], ptr %m_el, i64 0, i64 0
  %m_el2 = getelementptr inbounds %class.btMatrix3x3, ptr %this1, i32 0, i32 0
  %arrayidx3 = getelementptr inbounds [3 x %class.btVector3], ptr %m_el2, i64 0, i64 0
  call void @llvm.memcpy.p0.p0.i64(ptr align 4 %arrayidx3, ptr align 4 %arrayidx, i64 16, i1 false)
  %1 = load ptr, ptr %other.addr, align 8
  %m_el4 = getelementptr inbounds %class.btMatrix3x3, ptr %1, i32 0, i32 0
  %arrayidx5 = getelementptr inbounds [3 x %class.btVector3], ptr %m_el4, i64 0, i64 1
  %m_el6 = getelementptr inbounds %class.btMatrix3x3, ptr %this1, i32 0, i32 0
  %arrayidx7 = getelementptr inbounds [3 x %class.btVector3], ptr %m_el6, i64 0, i64 1
  call void @llvm.memcpy.p0.p0.i64(ptr align 4 %arrayidx7, ptr align 4 %arrayidx5, i64 16, i1 false)
  %2 = load ptr, ptr %other.addr, align 8
  %m_el8 = getelementptr inbounds %class.btMatrix3x3, ptr %2, i32 0, i32 0
  %arrayidx9 = getelementptr inbounds [3 x %class.btVector3], ptr %m_el8, i64 0, i64 2
  %m_el10 = getelementptr inbounds %class.btMatrix3x3, ptr %this1, i32 0, i32 0
  %arrayidx11 = getelementptr inbounds [3 x %class.btVector3], ptr %m_el10, i64 0, i64 2
  call void @llvm.memcpy.p0.p0.i64(ptr align 4 %arrayidx11, ptr align 4 %arrayidx9, i64 16, i1 false)
  ret ptr %this1
}

; Function Attrs: mustprogress uwtable
define linkonce_odr dso_local void @_ZN12btDbvtAabbMm6FromMMERK9btVector3S2_(ptr noalias sret(%struct.btDbvtAabbMm) align 4 %agg.result, ptr noundef nonnull align 4 dereferenceable(16) %mi, ptr noundef nonnull align 4 dereferenceable(16) %mx) #2 comdat align 2 {
entry:
  %mi.addr = alloca ptr, align 8
  %mx.addr = alloca ptr, align 8
  store ptr %mi, ptr %mi.addr, align 8
  store ptr %mx, ptr %mx.addr, align 8
  call void @_ZN12btDbvtAabbMmC2Ev(ptr noundef nonnull align 4 dereferenceable(32) %agg.result)
  %0 = load ptr, ptr %mi.addr, align 8
  %mi1 = getelementptr inbounds %struct.btDbvtAabbMm, ptr %agg.result, i32 0, i32 0
  call void @llvm.memcpy.p0.p0.i64(ptr align 4 %mi1, ptr align 4 %0, i64 16, i1 false)
  %1 = load ptr, ptr %mx.addr, align 8
  %mx2 = getelementptr inbounds %struct.btDbvtAabbMm, ptr %agg.result, i32 0, i32 1
  call void @llvm.memcpy.p0.p0.i64(ptr align 4 %mx2, ptr align 4 %1, i64 16, i1 false)
  ret void
}

; Function Attrs: mustprogress nounwind uwtable
define linkonce_odr dso_local void @_ZN9btVector3C2Ev(ptr noundef nonnull align 4 dereferenceable(16) %this) unnamed_addr #1 comdat align 2 {
entry:
  %this.addr = alloca ptr, align 8
  store ptr %this, ptr %this.addr, align 8
  ret void
}

; Function Attrs: mustprogress uwtable
define linkonce_odr dso_local noundef nonnull align 4 dereferenceable(64) ptr @_ZN11btTransformaSERKS_(ptr noundef nonnull align 4 dereferenceable(64) %this, ptr noundef nonnull align 4 dereferenceable(64) %other) #2 comdat align 2 {
entry:
  %this.addr = alloca ptr, align 8
  %other.addr = alloca ptr, align 8
  store ptr %this, ptr %this.addr, align 8
  store ptr %other, ptr %other.addr, align 8
  %this1 = load ptr, ptr %this.addr, align 8
  %0 = load ptr, ptr %other.addr, align 8
  %m_basis = getelementptr inbounds %class.btTransform, ptr %0, i32 0, i32 0
  %m_basis2 = getelementptr inbounds %class.btTransform, ptr %this1, i32 0, i32 0
  %call = call noundef nonnull align 4 dereferenceable(48) ptr @_ZN11btMatrix3x3aSERKS_(ptr noundef nonnull align 4 dereferenceable(48) %m_basis2, ptr noundef nonnull align 4 dereferenceable(48) %m_basis)
  %1 = load ptr, ptr %other.addr, align 8
  %m_origin = getelementptr inbounds %class.btTransform, ptr %1, i32 0, i32 1
  %m_origin3 = getelementptr inbounds %class.btTransform, ptr %this1, i32 0, i32 1
  call void @llvm.memcpy.p0.p0.i64(ptr align 4 %m_origin3, ptr align 4 %m_origin, i64 16, i1 false)
  ret ptr %this1
}

; Function Attrs: mustprogress nounwind uwtable
define linkonce_odr dso_local noundef nonnull align 8 dereferenceable(88) ptr @_ZN20btAlignedObjectArrayI20btCompoundShapeChildEixEi(ptr noundef nonnull align 8 dereferenceable(25) %this, i32 noundef %n) #1 comdat align 2 {
entry:
  %this.addr = alloca ptr, align 8
  %n.addr = alloca i32, align 4
  store ptr %this, ptr %this.addr, align 8
  store i32 %n, ptr %n.addr, align 4
  %this1 = load ptr, ptr %this.addr, align 8
  %m_data = getelementptr inbounds %class.btAlignedObjectArray, ptr %this1, i32 0, i32 5
  %0 = load ptr, ptr %m_data, align 8
  %1 = load i32, ptr %n.addr, align 4
  %idxprom = sext i32 %1 to i64
  %arrayidx = getelementptr inbounds %struct.btCompoundShapeChild, ptr %0, i64 %idxprom
  ret ptr %arrayidx
}

; Function Attrs: mustprogress uwtable
define dso_local void @_ZN15btCompoundShape20updateChildTransformEiRK11btTransformb(ptr noundef nonnull align 8 dereferenceable(128) %this, i32 noundef %childIndex, ptr noundef nonnull align 4 dereferenceable(64) %newChildTransform, i1 noundef zeroext %shouldRecalculateLocalAabb) #2 align 2 {
entry:
  %this.addr = alloca ptr, align 8
  %childIndex.addr = alloca i32, align 4
  %newChildTransform.addr = alloca ptr, align 8
  %shouldRecalculateLocalAabb.addr = alloca i8, align 1
  %localAabbMin = alloca %class.btVector3, align 4
  %localAabbMax = alloca %class.btVector3, align 4
  %bounds = alloca %struct.btDbvtAabbMm, align 4
  store ptr %this, ptr %this.addr, align 8
  store i32 %childIndex, ptr %childIndex.addr, align 4
  store ptr %newChildTransform, ptr %newChildTransform.addr, align 8
  %frombool = zext i1 %shouldRecalculateLocalAabb to i8
  store i8 %frombool, ptr %shouldRecalculateLocalAabb.addr, align 1
  %this1 = load ptr, ptr %this.addr, align 8
  %0 = load ptr, ptr %newChildTransform.addr, align 8
  %m_children = getelementptr inbounds %class.btCompoundShape, ptr %this1, i32 0, i32 1
  %1 = load i32, ptr %childIndex.addr, align 4
  %call = call noundef nonnull align 8 dereferenceable(88) ptr @_ZN20btAlignedObjectArrayI20btCompoundShapeChildEixEi(ptr noundef nonnull align 8 dereferenceable(25) %m_children, i32 noundef %1)
  %m_transform = getelementptr inbounds %struct.btCompoundShapeChild, ptr %call, i32 0, i32 0
  %call2 = call noundef nonnull align 4 dereferenceable(64) ptr @_ZN11btTransformaSERKS_(ptr noundef nonnull align 4 dereferenceable(64) %m_transform, ptr noundef nonnull align 4 dereferenceable(64) %0)
  %m_dynamicAabbTree = getelementptr inbounds %class.btCompoundShape, ptr %this1, i32 0, i32 4
  %2 = load ptr, ptr %m_dynamicAabbTree, align 8
  %tobool = icmp ne ptr %2, null
  br i1 %tobool, label %if.then, label %if.end

if.then:                                          ; preds = %entry
  call void @_ZN9btVector3C2Ev(ptr noundef nonnull align 4 dereferenceable(16) %localAabbMin)
  call void @_ZN9btVector3C2Ev(ptr noundef nonnull align 4 dereferenceable(16) %localAabbMax)
  %m_children3 = getelementptr inbounds %class.btCompoundShape, ptr %this1, i32 0, i32 1
  %3 = load i32, ptr %childIndex.addr, align 4
  %call4 = call noundef nonnull align 8 dereferenceable(88) ptr @_ZN20btAlignedObjectArrayI20btCompoundShapeChildEixEi(ptr noundef nonnull align 8 dereferenceable(25) %m_children3, i32 noundef %3)
  %m_childShape = getelementptr inbounds %struct.btCompoundShapeChild, ptr %call4, i32 0, i32 1
  %4 = load ptr, ptr %m_childShape, align 8
  %5 = load ptr, ptr %newChildTransform.addr, align 8
  %vtable = load ptr, ptr %4, align 8
  %vfn = getelementptr inbounds ptr, ptr %vtable, i64 2
  %6 = load ptr, ptr %vfn, align 8
  call void %6(ptr noundef nonnull align 8 dereferenceable(32) %4, ptr noundef nonnull align 4 dereferenceable(64) %5, ptr noundef nonnull align 4 dereferenceable(16) %localAabbMin, ptr noundef nonnull align 4 dereferenceable(16) %localAabbMax)
  call void @_ZN12btDbvtAabbMm6FromMMERK9btVector3S2_(ptr sret(%struct.btDbvtAabbMm) align 4 %bounds, ptr noundef nonnull align 4 dereferenceable(16) %localAabbMin, ptr noundef nonnull align 4 dereferenceable(16) %localAabbMax)
  %m_dynamicAabbTree5 = getelementptr inbounds %class.btCompoundShape, ptr %this1, i32 0, i32 4
  %7 = load ptr, ptr %m_dynamicAabbTree5, align 8
  %m_children6 = getelementptr inbounds %class.btCompoundShape, ptr %this1, i32 0, i32 1
  %8 = load i32, ptr %childIndex.addr, align 4
  %call7 = call noundef nonnull align 8 dereferenceable(88) ptr @_ZN20btAlignedObjectArrayI20btCompoundShapeChildEixEi(ptr noundef nonnull align 8 dereferenceable(25) %m_children6, i32 noundef %8)
  %m_node = getelementptr inbounds %struct.btCompoundShapeChild, ptr %call7, i32 0, i32 4
  %9 = load ptr, ptr %m_node, align 8
  call void @_ZN6btDbvt6updateEP10btDbvtNodeR12btDbvtAabbMm(ptr noundef nonnull align 8 dereferenceable(64) %7, ptr noundef %9, ptr noundef nonnull align 4 dereferenceable(32) %bounds)
  br label %if.end

if.end:                                           ; preds = %if.then, %entry
  %10 = load i8, ptr %shouldRecalculateLocalAabb.addr, align 1
  %tobool8 = trunc i8 %10 to i1
  br i1 %tobool8, label %if.then9, label %if.end12

if.then9:                                         ; preds = %if.end
  %vtable10 = load ptr, ptr %this1, align 8
  %vfn11 = getelementptr inbounds ptr, ptr %vtable10, i64 17
  %11 = load ptr, ptr %vfn11, align 8
  call void %11(ptr noundef nonnull align 8 dereferenceable(128) %this1)
  br label %if.end12

if.end12:                                         ; preds = %if.then9, %if.end
  ret void
}