; Function Attrs: mustprogress uwtable
define dso_local void @_ZN15btCompoundShape20updateChildTransformEiRK11btTransformb(ptr noundef nonnull align 8 dereferenceable(128) %this, i32 noundef %childIndex, ptr noundef nonnull align 4 dereferenceable(64) %newChildTransform, i1 noundef zeroext %shouldRecalculateLocalAabb) local_unnamed_addr #0 align 2 {
entry:
  %localAabbMin = alloca %class.btVector3, align 4
  %localAabbMax = alloca %class.btVector3, align 4
  %bounds = alloca %struct.btDbvtAabbMm, align 4
  %m_data.i = getelementptr inbounds i8, ptr %this, i64 48
  %0 = load ptr, ptr %m_data.i, align 8
  %idxprom.i = sext i32 %childIndex to i64
  %arrayidx.i = getelementptr inbounds %struct.btCompoundShapeChild, ptr %0, i64 %idxprom.i
  tail call void @llvm.memcpy.p0.p0.i64(ptr noundef nonnull align 4 dereferenceable(16) %arrayidx.i, ptr noundef nonnull align 4 dereferenceable(16) %newChildTransform, i64 16, i1 false)
  %arrayidx5.i.i = getelementptr inbounds i8, ptr %newChildTransform, i64 16
  %arrayidx7.i.i = getelementptr inbounds i8, ptr %arrayidx.i, i64 16
  tail call void @llvm.memcpy.p0.p0.i64(ptr noundef nonnull align 4 dereferenceable(16) %arrayidx7.i.i, ptr noundef nonnull align 4 dereferenceable(16) %arrayidx5.i.i, i64 16, i1 false)
  %arrayidx9.i.i = getelementptr inbounds i8, ptr %newChildTransform, i64 32
  %arrayidx11.i.i = getelementptr inbounds i8, ptr %arrayidx.i, i64 32
  tail call void @llvm.memcpy.p0.p0.i64(ptr noundef nonnull align 4 dereferenceable(16) %arrayidx11.i.i, ptr noundef nonnull align 4 dereferenceable(16) %arrayidx9.i.i, i64 16, i1 false)
  %m_origin.i = getelementptr inbounds i8, ptr %newChildTransform, i64 48
  %m_origin3.i = getelementptr inbounds i8, ptr %arrayidx.i, i64 48
  tail call void @llvm.memcpy.p0.p0.i64(ptr noundef nonnull align 4 dereferenceable(16) %m_origin3.i, ptr noundef nonnull align 4 dereferenceable(16) %m_origin.i, i64 16, i1 false)
  %m_dynamicAabbTree = getelementptr inbounds i8, ptr %this, i64 96
  %1 = load ptr, ptr %m_dynamicAabbTree, align 8
  %tobool.not = icmp eq ptr %1, null
  br i1 %tobool.not, label %if.end, label %if.then

if.then:                                          ; preds = %entry
  %2 = load ptr, ptr %m_data.i, align 8
  %m_childShape = getelementptr inbounds %struct.btCompoundShapeChild, ptr %2, i64 %idxprom.i, i32 1
  %3 = load ptr, ptr %m_childShape, align 8
  %vtable = load ptr, ptr %3, align 8
  %vfn = getelementptr inbounds i8, ptr %vtable, i64 16
  %4 = load ptr, ptr %vfn, align 8
  call void %4(ptr noundef nonnull align 8 dereferenceable(32) %3, ptr noundef nonnull align 4 dereferenceable(64) %newChildTransform, ptr noundef nonnull align 4 dereferenceable(16) %localAabbMin, ptr noundef nonnull align 4 dereferenceable(16) %localAabbMax)
  call void @llvm.memcpy.p0.p0.i64(ptr noundef nonnull align 4 dereferenceable(16) %bounds, ptr noundef nonnull align 4 dereferenceable(16) %localAabbMin, i64 16, i1 false)
  %mx2.i = getelementptr inbounds i8, ptr %bounds, i64 16
  call void @llvm.memcpy.p0.p0.i64(ptr noundef nonnull align 4 dereferenceable(16) %mx2.i, ptr noundef nonnull align 4 dereferenceable(16) %localAabbMax, i64 16, i1 false)
  %5 = load ptr, ptr %m_dynamicAabbTree, align 8
  %6 = load ptr, ptr %m_data.i, align 8
  %m_node = getelementptr inbounds %struct.btCompoundShapeChild, ptr %6, i64 %idxprom.i, i32 4
  %7 = load ptr, ptr %m_node, align 8
  call void @_ZN6btDbvt6updateEP10btDbvtNodeR12btDbvtAabbMm(ptr noundef nonnull align 8 dereferenceable(64) %5, ptr noundef %7, ptr noundef nonnull align 4 dereferenceable(32) %bounds)
  br label %if.end

if.end:                                           ; preds = %if.then, %entry
  br i1 %shouldRecalculateLocalAabb, label %if.then9, label %if.end12

if.then9:                                         ; preds = %if.end
  %vtable10 = load ptr, ptr %this, align 8
  %vfn11 = getelementptr inbounds i8, ptr %vtable10, i64 136
  %8 = load ptr, ptr %vfn11, align 8
  call void %8(ptr noundef nonnull align 8 dereferenceable(128) %this)
  br label %if.end12

if.end12:                                         ; preds = %if.then9, %if.end
  ret void
}